; Function Attrs: nounwind uwtable
define internal fastcc void @markreachable(ptr noundef readonly captures(none) %0, ptr noundef captures(none) %1, ptr noundef %2) unnamed_addr #0 {
  %4 = getelementptr inbounds nuw i8, ptr %0, i64 136
  %5 = load ptr, ptr %4, align 8
  %6 = load ptr, ptr %5, align 8
  %7 = getelementptr inbounds nuw i8, ptr %6, i64 56
  %8 = load ptr, ptr %7, align 8
  %9 = getelementptr inbounds nuw i8, ptr %8, i64 8
  %10 = load ptr, ptr %9, align 8
  %11 = tail call i32 %10() #20
  %.not = icmp eq i32 %11, 0
  br i1 %.not, label %18, label %12

12:                                               ; preds = %3
  %13 = load ptr, ptr %4, align 8
  %14 = getelementptr inbounds nuw i8, ptr %13, i64 36
  store i32 101, ptr %14, align 4
  %15 = load ptr, ptr %4, align 8
  %16 = getelementptr inbounds nuw i8, ptr %15, i64 24
  %17 = load i32, ptr %16, align 8
  %.not20 = icmp eq i32 %17, 0
  %spec.select = select i1 %.not20, i32 19, i32 %17
  store i32 %spec.select, ptr %16, align 8
  br label %.loopexit

18:                                               ; preds = %3
  %19 = getelementptr inbounds nuw i8, ptr %1, i64 32
  %20 = load ptr, ptr %19, align 8
  %.not18 = icmp eq ptr %20, null
  br i1 %.not18, label %21, label %.loopexit

21:                                               ; preds = %18
  store ptr %2, ptr %19, align 8
  %.0.in1 = getelementptr inbounds nuw i8, ptr %1, i64 24
  %.02 = load ptr, ptr %.0.in1, align 8
  %.not193 = icmp eq ptr %.02, null
  br i1 %.not193, label %.loopexit, label %.lr.ph

.lr.ph:                                           ; preds = %21, %.lr.ph
  %.04 = phi ptr [ %.0, %.lr.ph ], [ %.02, %21 ]
  %22 = getelementptr inbounds nuw i8, ptr %.04, i64 16
  %23 = load ptr, ptr %22, align 8
  tail call fastcc void @markreachable(ptr noundef %0, ptr noundef %23, ptr noundef %2)
  %.0.in = getelementptr inbounds nuw i8, ptr %.04, i64 24
  %.0 = load ptr, ptr %.0.in, align 8
  %.not19 = icmp eq ptr %.0, null
  br i1 %.not19, label %.loopexit, label %.lr.ph, !llvm.loop !147

.loopexit:                                        ; preds = %.lr.ph, %21, %18, %12
  ret void
}